; Function Attrs: mustprogress nofree norecurse nounwind willreturn memory(readwrite, inaccessiblemem: none) uwtable
define void @_ZN2cv12AsyncPromiseC2ERKS0_(ptr noundef nonnull writeonly align 8 captures(none) dereferenceable(8) initializes((0, 8)) %0, ptr noundef nonnull readonly align 8 captures(none) dereferenceable(8) %1) unnamed_addr #5 align 2 {
  %3 = load ptr, ptr %1, align 8, !tbaa !87
  store ptr %3, ptr %0, align 8, !tbaa !87
  %.not = icmp eq ptr %3, null
  br i1 %.not, label %8, label %4

4:                                                ; preds = %2
  %5 = getelementptr inbounds nuw i8, ptr %3, i64 8
  %6 = atomicrmw add ptr %5, i32 1 acq_rel, align 8
  %7 = atomicrmw add ptr %3, i32 1 acq_rel, align 8
  br label %8

8:                                                ; preds = %4, %2
  ret void
}